(dp0
(I200
I3000
tp1
cnumpy.core.multiarray
scalar
p2
(cnumpy
dtype
p3
(S'f8'
p4
I0
I1
tp5
Rp6
(I3
S'<'
p7
NNNI-1
I-1
I0
tp8
bS'\xd0\xd0f\x9e\xf4C\xd5?'
p9
tp10
Rp11
s(I200
I3500
tp12
g2
(g6
S'\x91X\xe0\xe4 \x85\xd3?'
p13
tp14
Rp15
s(I200
I5000
tp16
g2
(g6
S'~\x19\xdfv\xf7\xd3\xd0?'
p17
tp18
Rp19
s(I200
I4000
tp20
g2
(g6
S'\xed\x81\x07\x1e\xc7F\xd1?'
p21
tp22
Rp23
s(I200
I500
tp24
g2
(g6
S"_\xfb'\xb7*#\xed?"
p25
tp26
Rp27
s(I200
I1000
tp28
g2
(g6
S'/+4\xb5\x0e\xfe\xe4?'
p29
tp30
Rp31
s(I200
I1500
tp32
g2
(g6
S'7XT:\xc8\x03\xe8?'
p33
tp34
Rp35
s(I200
I4500
tp36
g2
(g6
S'\xf8\xe4\xa5\x0c\x065\xd0?'
p37
tp38
Rp39
s(I200
I2000
tp40
g2
(g6
S'\xaep\xaf\xcc2\x80\xd9?'
p41
tp42
Rp43
s(I200
I2500
tp44
g2
(g6
S"'/-\xaa\x15y\xd7?"
p45
tp46
Rp47
s.