(dp0
(I200
I3000
tp1
cnumpy.core.multiarray
scalar
p2
(cnumpy
dtype
p3
(S'f8'
p4
I0
I1
tp5
Rp6
(I3
S'<'
p7
NNNI-1
I-1
I0
tp8
bS'e\xdb\xe0\xae\x9aa\xf4?'
p9
tp10
Rp11
s(I200
I3500
tp12
g2
(g6
S'6\xb7j\xc2\x90O\xf4?'
p13
tp14
Rp15
s(I200
I5000
tp16
g2
(g6
S'\x00\xaa\xfcQ\x9al\xf3?'
p17
tp18
Rp19
s(I200
I4000
tp20
g2
(g6
S'\xc3Q\x9f\xbb\xe3\xda\xf3?'
p21
tp22
Rp23
s(I200
I500
tp24
g2
(g6
S'U\xb6\xd2\x00\x1c\xb6\x00@'
p25
tp26
Rp27
s(I200
I1000
tp28
g2
(g6
S'd\x0c\x9dg\x86s\xf7?'
p29
tp30
Rp31
s(I200
I1500
tp32
g2
(g6
S'\x1d\x8f@\xfcQ!\xf7?'
p33
tp34
Rp35
s(I200
I4500
tp36
g2
(g6
S'\xa0\x1aJV\xa3f\xf4?'
p37
tp38
Rp39
s(I200
I2000
tp40
g2
(g6
S'\xc3#.\x13\x7f\xaa\xf5?'
p41
tp42
Rp43
s(I200
I2500
tp44
g2
(g6
S'T\xd3P\xd2\x13M\xf5?'
p45
tp46
Rp47
s.