(dp0
(I100
I400
tp1
cnumpy.core.multiarray
scalar
p2
(cnumpy
dtype
p3
(S'f8'
p4
I0
I1
tp5
Rp6
(I3
S'<'
p7
NNNI-1
I-1
I0
tp8
bS'of<\x1d\xfc\x17g?'
p9
tp10
Rp11
s(I100
I100
tp12
g2
(g6
S'\xda\x18\x14\xad\x87\xf2Z?'
p13
tp14
Rp15
s(I100
I300
tp16
g2
(g6
S'\x83#)\x1d/\xd1}?'
p17
tp18
Rp19
s(I100
I200
tp20
g2
(g6
S'E\x06PX\xae*Q?'
p21
tp22
Rp23
s.