(dp0
(I10
I1000
tp1
cnumpy.core.multiarray
scalar
p2
(cnumpy
dtype
p3
(S'f8'
p4
I0
I1
tp5
Rp6
(I3
S'<'
p7
NNNI-1
I-1
I0
tp8
bS'\xfa\xd2`]\x1f\xd3\xd5?'
p9
tp10
Rp11
s(I10
I2500
tp12
g2
(g6
S'!\xb6@\xd3\x8a\xd3\xc7?'
p13
tp14
Rp15
s(I10
I5000
tp16
g2
(g6
S'\xb9\xd9\xd6>`)\xc6?'
p17
tp18
Rp19
s(I10
I2000
tp20
g2
(g6
S')z\x97\x15\xba\x06\xd7?'
p21
tp22
Rp23
s(I10
I3500
tp24
g2
(g6
S'\xc9\x91\xbd\xabZ\x1c\xc5?'
p25
tp26
Rp27
s(I10
I3000
tp28
g2
(g6
S'QJ\xc6X\t\xda\xc9?'
p29
tp30
Rp31
s(I10
I500
tp32
g2
(g6
S'\x9c\xe4\x14\xd2]G\xe0?'
p33
tp34
Rp35
s(I10
I4000
tp36
g2
(g6
S"'zq\xdd\x91U\xc8?"
p37
tp38
Rp39
s(I10
I1500
tp40
g2
(g6
S'i\x1a\xa0E\xef\x11\xd1?'
p41
tp42
Rp43
s(I10
I4500
tp44
g2
(g6
S'\xcfH?J{Q\xc1?'
p45
tp46
Rp47
s.