(dp0
(I500
I800
tp1
cnumpy.core.multiarray
scalar
p2
(cnumpy
dtype
p3
(S'f8'
p4
I0
I1
tp5
Rp6
(I3
S'<'
p7
NNNI-1
I-1
I0
tp8
bS':h\xeb9\xfdU\xed?'
p9
tp10
Rp11
s(I500
I400
tp12
g2
(g6
S'V\xfeX\x8f\x14\xa4\xf0?'
p13
tp14
Rp15
s(I500
I600
tp16
g2
(g6
S'\xa6\x02\x82EG\xe4\xe6?'
p17
tp18
Rp19
s(I500
I200
tp20
g2
(g6
S'[\x03b@\x05y\xfe?'
p21
tp22
Rp23
s.